target datalayout = "e-m:e-p270:32:32-p271:32:32-p272:64:64-i64:64-i128:128-f80:128-n8:16:32:64-S128"
target triple = "x86_64-pc-linux-gnu"

%struct.glslang_input_s = type { i32, i32, i32, i32, i32, i32, ptr, i32, i32, i32, i32, i32, ptr, %struct.glsl_include_callbacks_s, ptr }
%struct.glsl_include_callbacks_s = type { ptr, ptr, ptr }
%struct.glslang_shader_s = type { ptr, %"class.std::__cxx11::basic_string" }
%"class.std::__cxx11::basic_string" = type { %"struct.std::__cxx11::basic_string<char>::_Alloc_hider", i64, %union.anon }
%"struct.std::__cxx11::basic_string<char>::_Alloc_hider" = type { ptr }
%union.anon = type { i64, [8 x i8] }
%"class.glslang::TShader" = type <{ ptr, ptr, i32, [4 x i8], ptr, ptr, ptr, ptr, ptr, ptr, i32, [4 x i8], ptr, %"class.std::__cxx11::basic_string", i32, %"struct.glslang::TEnvironment", i8, [3 x i8] }>
%"struct.glslang::TEnvironment" = type { %"struct.glslang::TInputLanguage", %"struct.glslang::TClient", %"struct.glslang::TTarget" }
%"struct.glslang::TInputLanguage" = type { i32, i32, i32, i32, i8 }
%"struct.glslang::TClient" = type { i32, i32 }
%"struct.glslang::TTarget" = type { i32, i32, i8 }

@.str = private unnamed_addr constant [51 x i8] c"Error creating shader: null input(%p)/input->code\0A\00", align 1
@.str.1 = private unnamed_addr constant [18 x i8] c"input->code = %p\0A\00", align 1

; Function Attrs: mustprogress nounwind uwtable
define linkonce_odr void @_ZN7glslang7TShader12setEnvTargetENS_17EShTargetLanguageENS_24EShTargetLanguageVersionE(ptr noundef nonnull align 8 dereferenceable(165) %0, i32 noundef %1, i32 noundef %2) #0 comdat align 2 {
  %4 = alloca ptr, align 8
  %5 = alloca i32, align 4
  %6 = alloca i32, align 4
  store ptr %0, ptr %4, align 8
  store i32 %1, ptr %5, align 4
  store i32 %2, ptr %6, align 4
  %7 = load ptr, ptr %4, align 8
  %8 = load i32, ptr %5, align 4
  %9 = getelementptr inbounds %"class.glslang::TShader", ptr %7, i32 0, i32 15
  %10 = getelementptr inbounds %"struct.glslang::TEnvironment", ptr %9, i32 0, i32 2
  %11 = getelementptr inbounds %"struct.glslang::TTarget", ptr %10, i32 0, i32 0
  store i32 %8, ptr %11, align 4
  %12 = load i32, ptr %6, align 4
  %13 = getelementptr inbounds %"class.glslang::TShader", ptr %7, i32 0, i32 15
  %14 = getelementptr inbounds %"struct.glslang::TEnvironment", ptr %13, i32 0, i32 2
  %15 = getelementptr inbounds %"struct.glslang::TTarget", ptr %14, i32 0, i32 1
  store i32 %12, ptr %15, align 4
  ret void
}

; Function Attrs: mustprogress nounwind uwtable
define internal noundef i32 @_ZL32c_shader_target_language_version33glslang_target_language_version_t(i32 noundef %0) #0 {
  %2 = alloca i32, align 4
  %3 = alloca i32, align 4
  store i32 %0, ptr %3, align 4
  %4 = load i32, ptr %3, align 4
  switch i32 %4, label %12 [
    i32 65536, label %5
    i32 65792, label %6
    i32 66048, label %7
    i32 66304, label %8
    i32 66560, label %9
    i32 66816, label %10
    i32 67072, label %11
  ]

5:                                                ; preds = %1
  store i32 65536, ptr %2, align 4
  br label %14

6:                                                ; preds = %1
  store i32 65792, ptr %2, align 4
  br label %14

7:                                                ; preds = %1
  store i32 66048, ptr %2, align 4
  br label %14

8:                                                ; preds = %1
  store i32 66304, ptr %2, align 4
  br label %14

9:                                                ; preds = %1
  store i32 66560, ptr %2, align 4
  br label %14

10:                                               ; preds = %1
  store i32 66816, ptr %2, align 4
  br label %14

11:                                               ; preds = %1
  store i32 67072, ptr %2, align 4
  br label %14

12:                                               ; preds = %1
  br label %13

13:                                               ; preds = %12
  store i32 65536, ptr %2, align 4
  br label %14

14:                                               ; preds = %13, %11, %10, %9, %8, %7, %6, %5
  %15 = load i32, ptr %2, align 4
  ret i32 %15
}

; Function Attrs: mustprogress nounwind uwtable
define internal noundef i32 @_ZL24c_shader_target_language25glslang_target_language_t(i32 noundef %0) #0 {
  %2 = alloca i32, align 4
  %3 = alloca i32, align 4
  store i32 %0, ptr %3, align 4
  %4 = load i32, ptr %3, align 4
  %5 = icmp eq i32 %4, 0
  br i1 %5, label %6, label %7

6:                                                ; preds = %1
  store i32 0, ptr %2, align 4
  br label %8

7:                                                ; preds = %1
  store i32 1, ptr %2, align 4
  br label %8

8:                                                ; preds = %7, %6
  %9 = load i32, ptr %2, align 4
  ret i32 %9
}

; Function Attrs: mustprogress nounwind uwtable
define linkonce_odr void @_ZN7glslang7TShader12setEnvClientENS_9EShClientENS_22EShTargetClientVersionE(ptr noundef nonnull align 8 dereferenceable(165) %0, i32 noundef %1, i32 noundef %2) #0 comdat align 2 {
  %4 = alloca ptr, align 8
  %5 = alloca i32, align 4
  %6 = alloca i32, align 4
  store ptr %0, ptr %4, align 8
  store i32 %1, ptr %5, align 4
  store i32 %2, ptr %6, align 4
  %7 = load ptr, ptr %4, align 8
  %8 = load i32, ptr %5, align 4
  %9 = getelementptr inbounds %"class.glslang::TShader", ptr %7, i32 0, i32 15
  %10 = getelementptr inbounds %"struct.glslang::TEnvironment", ptr %9, i32 0, i32 1
  %11 = getelementptr inbounds %"struct.glslang::TClient", ptr %10, i32 0, i32 0
  store i32 %8, ptr %11, align 4
  %12 = load i32, ptr %6, align 4
  %13 = getelementptr inbounds %"class.glslang::TShader", ptr %7, i32 0, i32 15
  %14 = getelementptr inbounds %"struct.glslang::TEnvironment", ptr %13, i32 0, i32 1
  %15 = getelementptr inbounds %"struct.glslang::TClient", ptr %14, i32 0, i32 1
  store i32 %12, ptr %15, align 4
  ret void
}

; Function Attrs: mustprogress nounwind uwtable
define internal noundef i32 @_ZL23c_shader_client_version31glslang_target_client_version_t(i32 noundef %0) #0 {
  %2 = alloca i32, align 4
  %3 = alloca i32, align 4
  store i32 %0, ptr %3, align 4
  %4 = load i32, ptr %3, align 4
  switch i32 %4, label %9 [
    i32 4198400, label %5
    i32 4202496, label %6
    i32 4206592, label %7
    i32 450, label %8
  ]

5:                                                ; preds = %1
  store i32 4198400, ptr %2, align 4
  br label %11

6:                                                ; preds = %1
  store i32 4202496, ptr %2, align 4
  br label %11

7:                                                ; preds = %1
  store i32 4206592, ptr %2, align 4
  br label %11

8:                                                ; preds = %1
  store i32 450, ptr %2, align 4
  br label %11

9:                                                ; preds = %1
  br label %10

10:                                               ; preds = %9
  store i32 4194304, ptr %2, align 4
  br label %11

11:                                               ; preds = %10, %8, %7, %6, %5
  %12 = load i32, ptr %2, align 4
  ret i32 %12
}

; Function Attrs: mustprogress nounwind uwtable
define linkonce_odr void @_ZN7glslang7TShader11setEnvInputENS_9EShSourceE11EShLanguageNS_9EShClientEi(ptr noundef nonnull align 8 dereferenceable(165) %0, i32 noundef %1, i32 noundef %2, i32 noundef %3, i32 noundef %4) #0 comdat align 2 {
  %6 = alloca ptr, align 8
  %7 = alloca i32, align 4
  %8 = alloca i32, align 4
  %9 = alloca i32, align 4
  %10 = alloca i32, align 4
  store ptr %0, ptr %6, align 8
  store i32 %1, ptr %7, align 4
  store i32 %2, ptr %8, align 4
  store i32 %3, ptr %9, align 4
  store i32 %4, ptr %10, align 4
  %11 = load ptr, ptr %6, align 8
  %12 = load i32, ptr %7, align 4
  %13 = getelementptr inbounds %"class.glslang::TShader", ptr %11, i32 0, i32 15
  %14 = getelementptr inbounds %"struct.glslang::TEnvironment", ptr %13, i32 0, i32 0
  %15 = getelementptr inbounds %"struct.glslang::TInputLanguage", ptr %14, i32 0, i32 0
  store i32 %12, ptr %15, align 4
  %16 = load i32, ptr %8, align 4
  %17 = getelementptr inbounds %"class.glslang::TShader", ptr %11, i32 0, i32 15
  %18 = getelementptr inbounds %"struct.glslang::TEnvironment", ptr %17, i32 0, i32 0
  %19 = getelementptr inbounds %"struct.glslang::TInputLanguage", ptr %18, i32 0, i32 1
  store i32 %16, ptr %19, align 4
  %20 = load i32, ptr %9, align 4
  %21 = getelementptr inbounds %"class.glslang::TShader", ptr %11, i32 0, i32 15
  %22 = getelementptr inbounds %"struct.glslang::TEnvironment", ptr %21, i32 0, i32 0
  %23 = getelementptr inbounds %"struct.glslang::TInputLanguage", ptr %22, i32 0, i32 2
  store i32 %20, ptr %23, align 4
  %24 = load i32, ptr %10, align 4
  %25 = getelementptr inbounds %"class.glslang::TShader", ptr %11, i32 0, i32 15
  %26 = getelementptr inbounds %"struct.glslang::TEnvironment", ptr %25, i32 0, i32 0
  %27 = getelementptr inbounds %"struct.glslang::TInputLanguage", ptr %26, i32 0, i32 3
  store i32 %24, ptr %27, align 4
  ret void
}

; Function Attrs: mustprogress nounwind uwtable
define internal noundef i32 @_ZL15c_shader_client16glslang_client_t(i32 noundef %0) #0 {
  %2 = alloca i32, align 4
  %3 = alloca i32, align 4
  store i32 %0, ptr %3, align 4
  %4 = load i32, ptr %3, align 4
  switch i32 %4, label %7 [
    i32 1, label %5
    i32 2, label %6
  ]

5:                                                ; preds = %1
  store i32 1, ptr %2, align 4
  br label %9

6:                                                ; preds = %1
  store i32 2, ptr %2, align 4
  br label %9

7:                                                ; preds = %1
  br label %8

8:                                                ; preds = %7
  store i32 0, ptr %2, align 4
  br label %9

9:                                                ; preds = %8, %6, %5
  %10 = load i32, ptr %2, align 4
  ret i32 %10
}

; Function Attrs: mustprogress nounwind uwtable
define internal noundef i32 @_ZL15c_shader_source16glslang_source_t(i32 noundef %0) #0 {
  %2 = alloca i32, align 4
  %3 = alloca i32, align 4
  store i32 %0, ptr %3, align 4
  %4 = load i32, ptr %3, align 4
  switch i32 %4, label %7 [
    i32 1, label %5
    i32 2, label %6
  ]

5:                                                ; preds = %1
  store i32 1, ptr %2, align 4
  br label %9

6:                                                ; preds = %1
  store i32 2, ptr %2, align 4
  br label %9

7:                                                ; preds = %1
  br label %8

8:                                                ; preds = %7
  store i32 0, ptr %2, align 4
  br label %9

9:                                                ; preds = %8, %6, %5
  %10 = load i32, ptr %2, align 4
  ret i32 %10
}

; Function Attrs: mustprogress nounwind uwtable
define internal noundef i32 @_ZL14c_shader_stage15glslang_stage_t(i32 noundef %0) #0 {
  %2 = alloca i32, align 4
  %3 = alloca i32, align 4
  store i32 %0, ptr %3, align 4
  %4 = load i32, ptr %3, align 4
  switch i32 %4, label %19 [
    i32 0, label %5
    i32 1, label %6
    i32 2, label %7
    i32 3, label %8
    i32 4, label %9
    i32 5, label %10
    i32 6, label %11
    i32 7, label %12
    i32 8, label %13
    i32 9, label %14
    i32 10, label %15
    i32 11, label %16
    i32 12, label %17
    i32 13, label %18
  ]

5:                                                ; preds = %1
  store i32 0, ptr %2, align 4
  br label %21

6:                                                ; preds = %1
  store i32 1, ptr %2, align 4
  br label %21

7:                                                ; preds = %1
  store i32 2, ptr %2, align 4
  br label %21

8:                                                ; preds = %1
  store i32 3, ptr %2, align 4
  br label %21

9:                                                ; preds = %1
  store i32 4, ptr %2, align 4
  br label %21

10:                                               ; preds = %1
  store i32 5, ptr %2, align 4
  br label %21

11:                                               ; preds = %1
  store i32 6, ptr %2, align 4
  br label %21

12:                                               ; preds = %1
  store i32 7, ptr %2, align 4
  br label %21

13:                                               ; preds = %1
  store i32 8, ptr %2, align 4
  br label %21

14:                                               ; preds = %1
  store i32 9, ptr %2, align 4
  br label %21

15:                                               ; preds = %1
  store i32 10, ptr %2, align 4
  br label %21

16:                                               ; preds = %1
  store i32 11, ptr %2, align 4
  br label %21

17:                                               ; preds = %1
  store i32 12, ptr %2, align 4
  br label %21

18:                                               ; preds = %1
  store i32 13, ptr %2, align 4
  br label %21

19:                                               ; preds = %1
  br label %20

20:                                               ; preds = %19
  store i32 14, ptr %2, align 4
  br label %21

21:                                               ; preds = %20, %18, %17, %16, %15, %14, %13, %12, %11, %10, %9, %8, %7, %6, %5
  %22 = load i32, ptr %2, align 4
  ret i32 %22
}

; Function Attrs: mustprogress nounwind uwtable
define linkonce_odr void @_ZN16glslang_shader_sC2Ev(ptr noundef nonnull align 8 dereferenceable(40) %0) unnamed_addr #0 comdat align 2 {
  %2 = alloca ptr, align 8
  store ptr %0, ptr %2, align 8
  %3 = load ptr, ptr %2, align 8
  %4 = getelementptr inbounds %struct.glslang_shader_s, ptr %3, i32 0, i32 1
  call void @_ZNSt7__cxx1112basic_stringIcSt11char_traitsIcESaIcEEC1Ev(ptr noundef nonnull align 8 dereferenceable(32) %4) #11
  ret void
}

; Function Attrs: mustprogress nounwind uwtable
define ptr @glslang_shader_create(ptr noundef %0) #0 {
  %2 = alloca ptr, align 8
  %3 = alloca ptr, align 8
  %4 = alloca ptr, align 8
  store ptr %0, ptr %3, align 8
  %5 = load ptr, ptr %3, align 8
  %6 = icmp ne ptr %5, null
  br i1 %6, label %7, label %12

7:                                                ; preds = %1
  %8 = load ptr, ptr %3, align 8
  %9 = getelementptr inbounds %struct.glslang_input_s, ptr %8, i32 0, i32 6
  %10 = load ptr, ptr %9, align 8
  %11 = icmp ne ptr %10, null
  br i1 %11, label %23, label %12

12:                                               ; preds = %7, %1
  %13 = load ptr, ptr %3, align 8
  %14 = call i32 (ptr, ...) @printf(ptr noundef @.str, ptr noundef %13)
  %15 = load ptr, ptr %3, align 8
  %16 = icmp ne ptr %15, null
  br i1 %16, label %17, label %22

17:                                               ; preds = %12
  %18 = load ptr, ptr %3, align 8
  %19 = getelementptr inbounds %struct.glslang_input_s, ptr %18, i32 0, i32 6
  %20 = load ptr, ptr %19, align 8
  %21 = call i32 (ptr, ...) @printf(ptr noundef @.str.1, ptr noundef %20)
  br label %22

22:                                               ; preds = %17, %12
  store ptr null, ptr %2, align 8
  br label %78

23:                                               ; preds = %7
  %24 = call noalias noundef nonnull ptr @_Znwm(i64 noundef 40) #10
  call void @llvm.memset.p0.i64(ptr align 16 %24, i8 0, i64 40, i1 false)
  call void @_ZN16glslang_shader_sC2Ev(ptr noundef nonnull align 8 dereferenceable(40) %24) #11
  store ptr %24, ptr %4, align 8
  %25 = call noalias noundef nonnull ptr @_Znwm(i64 noundef 168) #10
  %26 = load ptr, ptr %3, align 8
  %27 = getelementptr inbounds %struct.glslang_input_s, ptr %26, i32 0, i32 1
  %28 = load i32, ptr %27, align 4
  %29 = call noundef i32 @_ZL14c_shader_stage15glslang_stage_t(i32 noundef %28)
  call void @_ZN7glslang7TShaderC1E11EShLanguage(ptr noundef nonnull align 8 dereferenceable(165) %25, i32 noundef %29)
  %30 = load ptr, ptr %4, align 8
  %31 = getelementptr inbounds %struct.glslang_shader_s, ptr %30, i32 0, i32 0
  store ptr %25, ptr %31, align 8
  %32 = load ptr, ptr %4, align 8
  %33 = getelementptr inbounds %struct.glslang_shader_s, ptr %32, i32 0, i32 0
  %34 = load ptr, ptr %33, align 8
  %35 = load ptr, ptr %3, align 8
  %36 = getelementptr inbounds %struct.glslang_input_s, ptr %35, i32 0, i32 6
  call void @_ZN7glslang7TShader10setStringsEPKPKci(ptr noundef nonnull align 8 dereferenceable(165) %34, ptr noundef %36, i32 noundef 1)
  %37 = load ptr, ptr %4, align 8
  %38 = getelementptr inbounds %struct.glslang_shader_s, ptr %37, i32 0, i32 0
  %39 = load ptr, ptr %38, align 8
  %40 = load ptr, ptr %3, align 8
  %41 = getelementptr inbounds %struct.glslang_input_s, ptr %40, i32 0, i32 0
  %42 = load i32, ptr %41, align 8
  %43 = call noundef i32 @_ZL15c_shader_source16glslang_source_t(i32 noundef %42)
  %44 = load ptr, ptr %3, align 8
  %45 = getelementptr inbounds %struct.glslang_input_s, ptr %44, i32 0, i32 1
  %46 = load i32, ptr %45, align 4
  %47 = call noundef i32 @_ZL14c_shader_stage15glslang_stage_t(i32 noundef %46)
  %48 = load ptr, ptr %3, align 8
  %49 = getelementptr inbounds %struct.glslang_input_s, ptr %48, i32 0, i32 2
  %50 = load i32, ptr %49, align 8
  %51 = call noundef i32 @_ZL15c_shader_client16glslang_client_t(i32 noundef %50)
  %52 = load ptr, ptr %3, align 8
  %53 = getelementptr inbounds %struct.glslang_input_s, ptr %52, i32 0, i32 7
  %54 = load i32, ptr %53, align 8
  call void @_ZN7glslang7TShader11setEnvInputENS_9EShSourceE11EShLanguageNS_9EShClientEi(ptr noundef nonnull align 8 dereferenceable(165) %39, i32 noundef %43, i32 noundef %47, i32 noundef %51, i32 noundef %54)
  %55 = load ptr, ptr %4, align 8
  %56 = getelementptr inbounds %struct.glslang_shader_s, ptr %55, i32 0, i32 0
  %57 = load ptr, ptr %56, align 8
  %58 = load ptr, ptr %3, align 8
  %59 = getelementptr inbounds %struct.glslang_input_s, ptr %58, i32 0, i32 2
  %60 = load i32, ptr %59, align 8
  %61 = call noundef i32 @_ZL15c_shader_client16glslang_client_t(i32 noundef %60)
  %62 = load ptr, ptr %3, align 8
  %63 = getelementptr inbounds %struct.glslang_input_s, ptr %62, i32 0, i32 3
  %64 = load i32, ptr %63, align 4
  %65 = call noundef i32 @_ZL23c_shader_client_version31glslang_target_client_version_t(i32 noundef %64)
  call void @_ZN7glslang7TShader12setEnvClientENS_9EShClientENS_22EShTargetClientVersionE(ptr noundef nonnull align 8 dereferenceable(165) %57, i32 noundef %61, i32 noundef %65)
  %66 = load ptr, ptr %4, align 8
  %67 = getelementptr inbounds %struct.glslang_shader_s, ptr %66, i32 0, i32 0
  %68 = load ptr, ptr %67, align 8
  %69 = load ptr, ptr %3, align 8
  %70 = getelementptr inbounds %struct.glslang_input_s, ptr %69, i32 0, i32 4
  %71 = load i32, ptr %70, align 8
  %72 = call noundef i32 @_ZL24c_shader_target_language25glslang_target_language_t(i32 noundef %71)
  %73 = load ptr, ptr %3, align 8
  %74 = getelementptr inbounds %struct.glslang_input_s, ptr %73, i32 0, i32 5
  %75 = load i32, ptr %74, align 4
  %76 = call noundef i32 @_ZL32c_shader_target_language_version33glslang_target_language_version_t(i32 noundef %75)
  call void @_ZN7glslang7TShader12setEnvTargetENS_17EShTargetLanguageENS_24EShTargetLanguageVersionE(ptr noundef nonnull align 8 dereferenceable(165) %68, i32 noundef %72, i32 noundef %76)
  %77 = load ptr, ptr %4, align 8
  store ptr %77, ptr %2, align 8
  br label %78

78:                                               ; preds = %23, %22
  %79 = load ptr, ptr %2, align 8
  ret ptr %79
}