; Function Attrs: mustprogress nounwind uwtable
define noundef ptr @glslang_shader_create(ptr noundef %0) local_unnamed_addr #0 {
  %.not = icmp eq ptr %0, null
  br i1 %.not, label %.critedge, label %2

2:                                                ; preds = %1
  %3 = getelementptr inbounds i8, ptr %0, i64 24
  %4 = load ptr, ptr %3, align 8
  %.not23 = icmp eq ptr %4, null
  br i1 %.not23, label %5, label %_ZL14c_shader_stage15glslang_stage_t.exit

5:                                                ; preds = %2
  %6 = tail call i32 (ptr, ...) @printf(ptr noundef nonnull dereferenceable(1) @.str, ptr noundef nonnull %0)
  %7 = load ptr, ptr %3, align 8
  %8 = tail call i32 (ptr, ...) @printf(ptr noundef nonnull dereferenceable(1) @.str.1, ptr noundef %7)
  br label %44

.critedge:                                        ; preds = %1
  %9 = tail call i32 (ptr, ...) @printf(ptr noundef nonnull dereferenceable(1) @.str, ptr noundef null)
  br label %44

_ZL14c_shader_stage15glslang_stage_t.exit:        ; preds = %2
  %10 = tail call noalias noundef nonnull dereferenceable(40) ptr @_Znwm(i64 noundef 40) #16
  tail call void @llvm.memset.p0.i64(ptr noundef nonnull align 16 dereferenceable(40) %10, i8 0, i64 40, i1 false)
  %11 = getelementptr inbounds i8, ptr %10, i64 8
  tail call void @_ZNSt7__cxx1112basic_stringIcSt11char_traitsIcESaIcEEC1Ev(ptr noundef nonnull align 8 dereferenceable(32) %11) #15
  %12 = tail call noalias noundef nonnull dereferenceable(168) ptr @_Znwm(i64 noundef 168) #16
  %13 = getelementptr inbounds i8, ptr %0, i64 4
  %14 = load i32, ptr %13, align 4
  %. = tail call i32 @llvm.umin.i32(i32 %14, i32 14)
  tail call void @_ZN7glslang7TShaderC1E11EShLanguage(ptr noundef nonnull align 8 dereferenceable(165) %12, i32 noundef %.) #15
  store ptr %12, ptr %10, align 8
  tail call void @_ZN7glslang7TShader10setStringsEPKPKci(ptr noundef nonnull align 8 dereferenceable(165) %12, ptr noundef nonnull %3, i32 noundef 1) #15
  %15 = load ptr, ptr %10, align 8
  %16 = load i32, ptr %0, align 8
  %switch.selectcmp.i = icmp eq i32 %16, 2
  %switch.select.i = select i1 %switch.selectcmp.i, i32 2, i32 0
  %switch.selectcmp2.i = icmp eq i32 %16, 1
  %switch.select3.i = select i1 %switch.selectcmp2.i, i32 1, i32 %switch.select.i
  %17 = load i32, ptr %13, align 4
  %.37 = tail call i32 @llvm.umin.i32(i32 %17, i32 14)
  %18 = getelementptr inbounds i8, ptr %0, i64 8
  %19 = load i32, ptr %18, align 8
  %switch.selectcmp.i26 = icmp eq i32 %19, 2
  %switch.select.i27 = select i1 %switch.selectcmp.i26, i32 2, i32 0
  %switch.selectcmp2.i28 = icmp eq i32 %19, 1
  %switch.select3.i29 = select i1 %switch.selectcmp2.i28, i32 1, i32 %switch.select.i27
  %20 = getelementptr inbounds i8, ptr %0, i64 32
  %21 = load i32, ptr %20, align 8
  %22 = getelementptr inbounds i8, ptr %15, i64 124
  store i32 %switch.select3.i, ptr %22, align 4
  %23 = getelementptr inbounds i8, ptr %15, i64 128
  store i32 %.37, ptr %23, align 4
  %24 = getelementptr inbounds i8, ptr %15, i64 132
  store i32 %switch.select3.i29, ptr %24, align 4
  %25 = getelementptr inbounds i8, ptr %15, i64 136
  store i32 %21, ptr %25, align 4
  %26 = load ptr, ptr %10, align 8
  %27 = load i32, ptr %18, align 8
  %switch.selectcmp.i30 = icmp eq i32 %27, 2
  %switch.select.i31 = select i1 %switch.selectcmp.i30, i32 2, i32 0
  %switch.selectcmp2.i32 = icmp eq i32 %27, 1
  %switch.select3.i33 = select i1 %switch.selectcmp2.i32, i32 1, i32 %switch.select.i31
  %28 = getelementptr inbounds i8, ptr %0, i64 12
  %29 = load i32, ptr %28, align 4
  switch i32 %29, label %30 [
    i32 4198400, label %_ZL23c_shader_client_version31glslang_target_client_version_t.exit
    i32 4202496, label %_ZL23c_shader_client_version31glslang_target_client_version_t.exit
    i32 4206592, label %_ZL23c_shader_client_version31glslang_target_client_version_t.exit
    i32 450, label %_ZL23c_shader_client_version31glslang_target_client_version_t.exit
  ]

30:                                               ; preds = %_ZL14c_shader_stage15glslang_stage_t.exit
  br label %_ZL23c_shader_client_version31glslang_target_client_version_t.exit

_ZL23c_shader_client_version31glslang_target_client_version_t.exit: ; preds = %_ZL14c_shader_stage15glslang_stage_t.exit, %_ZL14c_shader_stage15glslang_stage_t.exit, %_ZL14c_shader_stage15glslang_stage_t.exit, %_ZL14c_shader_stage15glslang_stage_t.exit, %30
  %.0.i34 = phi i32 [ 4194304, %30 ], [ %29, %_ZL14c_shader_stage15glslang_stage_t.exit ], [ %29, %_ZL14c_shader_stage15glslang_stage_t.exit ], [ %29, %_ZL14c_shader_stage15glslang_stage_t.exit ], [ %29, %_ZL14c_shader_stage15glslang_stage_t.exit ]
  %31 = getelementptr inbounds i8, ptr %26, i64 144
  store i32 %switch.select3.i33, ptr %31, align 4
  %32 = getelementptr inbounds i8, ptr %26, i64 148
  store i32 %.0.i34, ptr %32, align 4
  %33 = load ptr, ptr %10, align 8
  %34 = getelementptr inbounds i8, ptr %0, i64 16
  %35 = load i32, ptr %34, align 8
  %36 = icmp ne i32 %35, 0
  %..i = zext i1 %36 to i32
  %37 = getelementptr inbounds i8, ptr %0, i64 20
  %38 = load i32, ptr %37, align 4
  %39 = add i32 %38, -65536
  %40 = tail call i32 @llvm.fshl.i32(i32 %39, i32 %39, i32 24)
  %switch.tableidx = add i32 %40, -1
  %41 = icmp ult i32 %switch.tableidx, 6
  %switch.idx.mult = shl nsw i32 %switch.tableidx, 8
  %switch.offset = add nsw i32 %switch.idx.mult, 65792
  %.0.i35 = select i1 %41, i32 %switch.offset, i32 65536
  %42 = getelementptr inbounds i8, ptr %33, i64 152
  store i32 %..i, ptr %42, align 4
  %43 = getelementptr inbounds i8, ptr %33, i64 156
  store i32 %.0.i35, ptr %43, align 4
  br label %44

44:                                               ; preds = %5, %.critedge, %_ZL23c_shader_client_version31glslang_target_client_version_t.exit
  %.0 = phi ptr [ %10, %_ZL23c_shader_client_version31glslang_target_client_version_t.exit ], [ null, %.critedge ], [ null, %5 ]
  ret ptr %.0
}